target datalayout = "e-m:e-p270:32:32-p271:32:32-p272:64:64-i64:64-i128:128-f80:128-n8:16:32:64-S128"
target triple = "x86_64-pc-linux-gnu"

%struct.siv128_context = type { %union.siv_block_u, %union.siv_block_u, ptr, ptr, ptr, i32, i32 }
%union.siv_block_u = type { [2 x i64] }

; Function Attrs: nounwind uwtable
define i32 @ossl_siv128_set_tag(ptr noundef %0, ptr noundef %1, i64 noundef %2) #0 {
  %4 = alloca i32, align 4
  %5 = alloca ptr, align 8
  %6 = alloca ptr, align 8
  %7 = alloca i64, align 8
  store ptr %0, ptr %5, align 8, !tbaa !14
  store ptr %1, ptr %6, align 8, !tbaa !3
  store i64 %2, ptr %7, align 8, !tbaa !16
  %8 = load i64, ptr %7, align 8, !tbaa !16
  %9 = icmp ne i64 %8, 16
  br i1 %9, label %10, label %11

10:                                               ; preds = %3
  store i32 0, ptr %4, align 4
  br label %17

11:                                               ; preds = %3
  %12 = load ptr, ptr %5, align 8, !tbaa !14
  %13 = getelementptr inbounds nuw %struct.siv128_context, ptr %12, i32 0, i32 1
  %14 = getelementptr inbounds [16 x i8], ptr %13, i64 0, i64 0
  %15 = load ptr, ptr %6, align 8, !tbaa !3
  %16 = load i64, ptr %7, align 8, !tbaa !16
  call void @llvm.memcpy.p0.p0.i64(ptr align 8 %14, ptr align 1 %15, i64 %16, i1 false)
  store i32 1, ptr %4, align 4
  br label %17

17:                                               ; preds = %11, %10
  %18 = load i32, ptr %4, align 4
  ret i32 %18
}